; Function Attrs: mustprogress nounwind uwtable
define dso_local noundef i32 @_ZN4llvm4hlsl16FrontendResource15getResourceKindEv(ptr nocapture noundef nonnull readonly align 8 dereferenceable(8) %0) local_unnamed_addr #0 align 2 {
  %2 = load ptr, ptr %0, align 8
  %3 = getelementptr inbounds i8, ptr %2, i64 -16
  %4 = load i64, ptr %3, align 8
  %5 = and i64 %4, 2
  %.not.i.i = icmp eq i64 %5, 0
  br i1 %.not.i.i, label %10, label %6

6:                                                ; preds = %1
  %7 = getelementptr inbounds i8, ptr %2, i64 -32
  %8 = load ptr, ptr %7, align 8
  %9 = tail call noundef i64 @_ZNK4llvm15SmallVectorBaseIjE4sizeEv(ptr noundef nonnull align 8 dereferenceable(16) %7) #7
  br label %_ZNK4llvm6MDNode10getOperandEj.exit

10:                                               ; preds = %1
  %11 = lshr i64 %4, 2
  %12 = and i64 %11, 15
  %13 = sub nsw i64 0, %12
  %14 = getelementptr inbounds %"class.llvm::MDOperand", ptr %3, i64 %13
  br label %_ZNK4llvm6MDNode10getOperandEj.exit

_ZNK4llvm6MDNode10getOperandEj.exit:              ; preds = %6, %10
  %.sroa.0.0.i.i = phi ptr [ %14, %10 ], [ %8, %6 ]
  %15 = getelementptr inbounds i8, ptr %.sroa.0.0.i.i, i64 8
  %16 = load ptr, ptr %15, align 8
  %17 = getelementptr inbounds nuw i8, ptr %16, i64 128
  %18 = load ptr, ptr %17, align 8
  %19 = getelementptr inbounds nuw i8, ptr %18, i64 24
  %20 = getelementptr inbounds i8, ptr %18, i64 32
  %21 = load i32, ptr %20, align 8
  %22 = icmp ult i32 %21, 65
  br i1 %22, label %_ZNK4llvm5APInt3ugtEm.exit.i.i, label %_ZNK4llvm5APInt13getActiveBitsEv.exit.i.i.i

_ZNK4llvm5APInt13getActiveBitsEv.exit.i.i.i:      ; preds = %_ZNK4llvm6MDNode10getOperandEj.exit
  %23 = tail call noundef i32 @_ZNK4llvm5APInt25countLeadingZerosSlowCaseEv(ptr noundef nonnull align 8 dereferenceable(12) %19) #8
  %24 = sub i32 %21, %23
  %25 = icmp ugt i32 %24, 64
  br i1 %25, label %_ZNK4llvm11ConstantInt15getLimitedValueEm.exit, label %_ZNK4llvm5APInt3ugtEm.exit.i.i

_ZNK4llvm5APInt3ugtEm.exit.i.i:                   ; preds = %_ZNK4llvm5APInt13getActiveBitsEv.exit.i.i.i, %_ZNK4llvm6MDNode10getOperandEj.exit
  %26 = load ptr, ptr %19, align 8
  %.0.in.i.i.i.i = select i1 %22, ptr %19, ptr %26
  %.0.i.i.i.i = load i64, ptr %.0.in.i.i.i.i, align 8
  %27 = trunc i64 %.0.i.i.i.i to i32
  br label %_ZNK4llvm11ConstantInt15getLimitedValueEm.exit

_ZNK4llvm11ConstantInt15getLimitedValueEm.exit:   ; preds = %_ZNK4llvm5APInt13getActiveBitsEv.exit.i.i.i, %_ZNK4llvm5APInt3ugtEm.exit.i.i
  %28 = phi i32 [ -1, %_ZNK4llvm5APInt13getActiveBitsEv.exit.i.i.i ], [ %27, %_ZNK4llvm5APInt3ugtEm.exit.i.i ]
  ret i32 %28
}